(lp1
(lp2
I201
aI180
aI0
aI0
aa(lp3
I145
aI125
aI0
aI0
aa(lp4
I160
aI0
aI0
aI84
aa(lp5
I138
aI0
aI0
aI56
aa(lp6
I176
aI154
aI0
aI0
aa(lp7
I134
aI113
aI0
aI0
aa(lp8
I177
aI0
aI0
aI106
aa(lp9
I206
aI0
aI0
aI132
aa(lp10
I155
aI131
aI0
aI0
aa(lp11
I170
aI147
aI0
aI0
aa(lp12
I126
aI106
aI0
aI0
aa(lp13
I234
aI213
aI0
aI0
aa(lp14
I183
aI159
aI0
aI0
aa(lp15
I161
aI0
aI0
aI110
aa(lp16
I260
aI233
aI0
aI0
aa(lp17
I183
aI159
aI0
aI0
aa(lp18
I243
aI224
aI0
aI0
aa(lp19
I212
aI189
aI0
aI0
aa(lp20
I37
aI0
aI0
aI10
aa(lp21
I208
aI0
aI0
aI90
aa(lp22
I149
aI128
aI0
aI0
aa(lp23
I176
aI153
aI0
aI0
aa(lp24
I177
aI0
aI0
aI66
aa(lp25
I165
aI143
aI0
aI0
aa(lp26
I183
aI158
aI0
aI0
aa(lp27
I141
aI119
aI0
aI0
aa(lp28
I219
aI197
aI0
aI0
aa(lp29
I158
aI138
aI0
aI0
aa(lp30
I52
aI44
aI0
aI0
aa(lp31
I128
aI0
aI0
aI22
aa(lp32
I208
aI186
aI0
aI0
aa(lp33
I195
aI174
aI0
aI0
aa(lp34
I158
aI0
aI0
aI68
aa(lp35
I184
aI0
aI0
aI118
aa(lp36
I129
aI109
aI0
aI0
aa.