(lp1
(lp2
I215
aI194
aI0
aI0
aa(lp3
I125
aI104
aI0
aI0
aa(lp4
I245
aI223
aI0
aI0
aa(lp5
I197
aI177
aI0
aI0
aa(lp6
I192
aI171
aI0
aI0
aa(lp7
I129
aI109
aI0
aI0
aa(lp8
I184
aI163
aI0
aI0
aa(lp9
I232
aI191
aI0
aI0
aa(lp10
I162
aI141
aI0
aI0
aa(lp11
I191
aI168
aI0
aI0
aa(lp12
I144
aI123
aI0
aI0
aa(lp13
I214
aI193
aI0
aI0
aa(lp14
I172
aI152
aI0
aI0
aa(lp15
I232
aI212
aI0
aI0
aa(lp16
I196
aI176
aI0
aI0
aa(lp17
I248
aI229
aI0
aI0
aa(lp18
I229
aI206
aI0
aI0
aa(lp19
I48
aI43
aI0
aI0
aa(lp20
I254
aI231
aI0
aI0
aa(lp21
I153
aI132
aI0
aI0
aa(lp22
I173
aI153
aI0
aI0
aa(lp23
I219
aI199
aI0
aI0
aa(lp24
I191
aI171
aI0
aI0
aa(lp25
I129
aI109
aI0
aI0
aa(lp26
I224
aI204
aI0
aI0
aa(lp27
I147
aI127
aI0
aI0
aa(lp28
I200
aI179
aI0
aI0
aa(lp29
I199
aI174
aI0
aI0
aa(lp30
I189
aI166
aI0
aI0
aa(lp31
I208
aI188
aI0
aI0
aa(lp32
I199
aI178
aI0
aI0
aa(lp33
I125
aI105
aI0
aI0
aa.